target datalayout = "e-m:e-p270:32:32-p271:32:32-p272:64:64-i64:64-i128:128-f80:128-n8:16:32:64-S128"
target triple = "x86_64-pc-linux-gnu"

%struct.sapi_header_struct = type { ptr, i64 }

; Function Attrs: nounwind uwtable
define internal void @php_head_apply_header_list_to_hash(ptr noundef %0, ptr noundef %1) #0 {
  %3 = alloca ptr, align 8
  %4 = alloca ptr, align 8
  %5 = alloca ptr, align 8
  store ptr %0, ptr %3, align 8, !tbaa !58
  store ptr %1, ptr %4, align 8, !tbaa !58
  call void @llvm.lifetime.start.p0(i64 8, ptr %5) #13
  %6 = load ptr, ptr %3, align 8, !tbaa !58
  store ptr %6, ptr %5, align 8, !tbaa !58
  %7 = load ptr, ptr %4, align 8, !tbaa !58
  %8 = icmp ne ptr %7, null
  br i1 %8, label %9, label %18

9:                                                ; preds = %2
  %10 = load ptr, ptr %5, align 8, !tbaa !58
  %11 = icmp ne ptr %10, null
  br i1 %11, label %12, label %18

12:                                               ; preds = %9
  %13 = load ptr, ptr %4, align 8, !tbaa !58
  %14 = load ptr, ptr %5, align 8, !tbaa !58
  %15 = getelementptr inbounds nuw %struct.sapi_header_struct, ptr %14, i32 0, i32 0
  %16 = load ptr, ptr %15, align 8, !tbaa !87
  %17 = call i32 @add_next_index_string(ptr noundef %13, ptr noundef %16)
  br label %18

18:                                               ; preds = %12, %9, %2
  call void @llvm.lifetime.end.p0(i64 8, ptr %5) #13
  ret void
}