; Function Attrs: nounwind uwtable
define internal void @php_head_apply_header_list_to_hash(ptr noundef readonly captures(address_is_null) %0, ptr noundef %1) #0 {
  %3 = icmp ne ptr %1, null
  %4 = icmp ne ptr %0, null
  %or.cond = and i1 %4, %3
  br i1 %or.cond, label %5, label %8

5:                                                ; preds = %2
  %6 = load ptr, ptr %0, align 8, !tbaa !85
  %7 = tail call i32 @add_next_index_string(ptr noundef nonnull %1, ptr noundef %6) #10
  br label %8

8:                                                ; preds = %5, %2
  ret void
}